; Function Attrs: mustprogress uwtable
define void @_ZN5arrow2io16HadoopFileSystem15DeleteDirectoryERKNSt7__cxx1112basic_stringIcSt11char_traitsIcESaIcEEE(ptr noalias sret(%"class.arrow::Status") align 8 %agg.result, ptr nocapture noundef nonnull readonly align 8 dereferenceable(16) %this, ptr noundef nonnull align 8 dereferenceable(32) %path) unnamed_addr #0 align 2 {
entry:
  tail call void @llvm.experimental.noalias.scope.decl(metadata !241)
  %impl_.i = getelementptr inbounds i8, ptr %this, i64 8
  %0 = load ptr, ptr %impl_.i, align 8, !noalias !241
  tail call void @llvm.experimental.noalias.scope.decl(metadata !244)
  %1 = load ptr, ptr %0, align 8, !noalias !247
  %fs_.i.i = getelementptr inbounds i8, ptr %0, i64 112
  %2 = load ptr, ptr %fs_.i.i, align 8, !noalias !247
  %call.i.i = tail call noundef ptr @_ZNKSt7__cxx1112basic_stringIcSt11char_traitsIcESaIcEE5c_strEv(ptr noundef nonnull align 8 dereferenceable(32) %path) #21, !noalias !247
  %call2.i.i = tail call noundef i32 @_ZN5arrow2io8internal11LibHdfsShim6DeleteEP13hdfs_internalPKci(ptr noundef nonnull align 8 dereferenceable(312) %1, ptr noundef %2, ptr noundef %call.i.i, i32 noundef 1), !noalias !247
  %cmp.i.i = icmp eq i32 %call2.i.i, -1
  br i1 %cmp.i.i, label %if.then.i.i, label %do.end.i.i

if.then.i.i:                                      ; preds = %entry
  %call3.i.i = tail call ptr @__errno_location() #23
  %3 = load i32, ptr %call3.i.i, align 4, !noalias !247
  tail call void @_ZN5arrow8internal15StatusFromErrnoIJRA6_KcRA7_S2_RA8_S2_EEENS_6StatusEiNS_10StatusCodeEDpOT_(ptr sret(%"class.arrow::Status") align 8 %agg.result, i32 noundef %3, i8 noundef signext 5, ptr noundef nonnull align 1 dereferenceable(6) @.str.2, ptr noundef nonnull align 1 dereferenceable(7) @.str.17, ptr noundef nonnull align 1 dereferenceable(8) @.str.4)
  br label %_ZN5arrow2io16HadoopFileSystem6DeleteERKNSt7__cxx1112basic_stringIcSt11char_traitsIcESaIcEEEb.exit

do.end.i.i:                                       ; preds = %entry
  store ptr null, ptr %agg.result, align 8, !alias.scope !248
  br label %_ZN5arrow2io16HadoopFileSystem6DeleteERKNSt7__cxx1112basic_stringIcSt11char_traitsIcESaIcEEEb.exit

_ZN5arrow2io16HadoopFileSystem6DeleteERKNSt7__cxx1112basic_stringIcSt11char_traitsIcESaIcEEEb.exit: ; preds = %if.then.i.i, %do.end.i.i
  ret void
}